; ModuleID = '20/369.c'
source_filename = "20/369.c"
target datalayout = "e-m:e-p270:32:32-p271:32:32-p272:64:64-i64:64-f80:128-n8:16:32:64-S128"
target triple = "x86_64-pc-linux-gnu"

@.str = private unnamed_addr constant [6 x i8] c"%s %s\00", align 1

; Function Attrs: noinline nounwind uwtable
define dso_local i32 @main() #0 {
  %1 = alloca i32, align 4
  %2 = alloca i8, align 1
  %3 = alloca [11 x i8], align 1
  %4 = alloca [4 x i8], align 1
  %5 = alloca [14 x i8], align 1
  %6 = alloca i32, align 4
  %7 = alloca i32, align 4
  %8 = alloca i32, align 4
  store i32 0, i32* %1, align 4
  br label %9

9:                                                ; preds = %43, %0
  %10 = getelementptr inbounds [11 x i8], [11 x i8]* %3, i64 0, i64 0
  %11 = getelementptr inbounds [4 x i8], [4 x i8]* %4, i64 0, i64 0
  %12 = call i32 (i8*, ...) @__isoc99_scanf(i8* getelementptr inbounds ([6 x i8], [6 x i8]* @.str, i64 0, i64 0), i8* %10, i8* %11)
  %13 = icmp ne i32 %12, -1
  br i1 %13, label %14, label %63

14:                                               ; preds = %9
  %15 = getelementptr inbounds [11 x i8], [11 x i8]* %3, i64 0, i64 0
  %16 = call i64 @strlen(i8* %15) #4
  %17 = trunc i64 %16 to i32
  store i32 %17, i32* %6, align 4
  %18 = getelementptr inbounds [11 x i8], [11 x i8]* %3, i64 0, i64 0
  %19 = load i8, i8* %18, align 1
  store i8 %19, i8* %2, align 1
  store i32 0, i32* %8, align 4
  store i32 0, i32* %7, align 4
  br label %20

20:                                               ; preds = %40, %14
  %21 = load i32, i32* %7, align 4
  %22 = load i32, i32* %6, align 4
  %23 = icmp slt i32 %21, %22
  br i1 %23, label %24, label %43

24:                                               ; preds = %20
  %25 = load i32, i32* %7, align 4
  %26 = sext i32 %25 to i64
  %27 = getelementptr inbounds [11 x i8], [11 x i8]* %3, i64 0, i64 %26
  %28 = load i8, i8* %27, align 1
  %29 = sext i8 %28 to i32
  %30 = load i8, i8* %2, align 1
  %31 = sext i8 %30 to i32
  %32 = icmp sgt i32 %29, %31
  br i1 %32, label %33, label %39

33:                                               ; preds = %24
  %34 = load i32, i32* %7, align 4
  %35 = sext i32 %34 to i64
  %36 = getelementptr inbounds [11 x i8], [11 x i8]* %3, i64 0, i64 %35
  %37 = load i8, i8* %36, align 1
  store i8 %37, i8* %2, align 1
  %38 = load i32, i32* %7, align 4
  store i32 %38, i32* %8, align 4
  br label %39

39:                                               ; preds = %33, %24
  br label %40

40:                                               ; preds = %39
  %41 = load i32, i32* %7, align 4
  %42 = add nsw i32 %41, 1
  store i32 %42, i32* %7, align 4
  br label %20

43:                                               ; preds = %20
  %44 = getelementptr inbounds [14 x i8], [14 x i8]* %5, i64 0, i64 0
  store i8 0, i8* %44, align 1
  %45 = getelementptr inbounds [14 x i8], [14 x i8]* %5, i64 0, i64 0
  %46 = getelementptr inbounds [11 x i8], [11 x i8]* %3, i64 0, i64 0
  %47 = load i32, i32* %8, align 4
  %48 = add nsw i32 %47, 1
  %49 = sext i32 %48 to i64
  %50 = call i8* @strncat(i8* %45, i8* %46, i64 %49) #5
  %51 = getelementptr inbounds [14 x i8], [14 x i8]* %5, i64 0, i64 0
  %52 = getelementptr inbounds [4 x i8], [4 x i8]* %4, i64 0, i64 0
  %53 = call i8* @strcat(i8* %51, i8* %52) #5
  %54 = getelementptr inbounds [14 x i8], [14 x i8]* %5, i64 0, i64 0
  %55 = getelementptr inbounds [11 x i8], [11 x i8]* %3, i64 0, i64 0
  %56 = load i32, i32* %8, align 4
  %57 = sext i32 %56 to i64
  %58 = getelementptr inbounds i8, i8* %55, i64 %57
  %59 = getelementptr inbounds i8, i8* %58, i64 1
  %60 = call i8* @strcat(i8* %54, i8* %59) #5
  %61 = getelementptr inbounds [14 x i8], [14 x i8]* %5, i64 0, i64 0
  %62 = call i32 @puts(i8* %61)
  br label %9

63:                                               ; preds = %9
  %64 = load i32, i32* %1, align 4
  ret i32 %64
}

declare dso_local i32 @__isoc99_scanf(i8*, ...) #1

; Function Attrs: nounwind readonly
declare dso_local i64 @strlen(i8*) #2

; Function Attrs: nounwind
declare dso_local i8* @strncat(i8*, i8*, i64) #3

; Function Attrs: nounwind
declare dso_local i8* @strcat(i8*, i8*) #3

declare dso_local i32 @puts(i8*) #1


!llvm.module.flags = !{!0}
!llvm.ident = !{!1}

!0 = !{i32 1, !"wchar_size", i32 4}
!1 = !{!"clang version 10.0.0-4ubuntu1 "}
